; Function Attrs: fn_ret_thunk_extern nounwind null_pointer_is_valid
define internal noundef i64 @close_delay_show(ptr nocapture noundef readonly %0, ptr nocapture readnone %1, ptr nocapture noundef writeonly %2) #0 align 16 {
  %4 = getelementptr inbounds i8, ptr %0, i64 120
  %5 = load ptr, ptr %4, align 8
  %6 = getelementptr inbounds i8, ptr %5, i64 256
  tail call void @mutex_lock(ptr noundef %6) #19
  %7 = getelementptr inbounds i8, ptr %5, i64 432
  %8 = load ptr, ptr %7, align 8
  %9 = icmp eq ptr %8, null
  br i1 %9, label %uart_get_info.exit, label %10

10:                                               ; preds = %3
  %11 = getelementptr inbounds i8, ptr %5, i64 352
  %12 = load i32, ptr %11, align 8
  %13 = zext i32 %12 to i64
  %14 = tail call i32 @jiffies_to_msecs(i64 noundef %13) #19
  %15 = udiv i32 %14, 10
  %16 = getelementptr inbounds i8, ptr %5, i64 356
  %17 = load i32, ptr %16, align 4
  %18 = icmp eq i32 %17, 65535
  br i1 %18, label %22, label %19

19:                                               ; preds = %10
  %20 = zext i32 %17 to i64
  %21 = tail call i32 @jiffies_to_msecs(i64 noundef %20) #19
  br label %22

22:                                               ; preds = %19, %10
  %23 = and i32 %15, 65535
  br label %uart_get_info.exit

uart_get_info.exit:                               ; preds = %3, %22
  %.sroa.12.0 = phi i32 [ 0, %3 ], [ %23, %22 ]
  tail call void @mutex_unlock(ptr noundef %6) #19
  %24 = tail call i32 (ptr, ptr, ...) @sprintf(ptr noundef %2, ptr noundef nonnull dereferenceable(1) @.str.54, i32 noundef %.sroa.12.0) #19
  %25 = sext i32 %24 to i64
  ret i64 %25
}